target datalayout = "e-m:e-p270:32:32-p271:32:32-p272:64:64-i64:64-i128:128-f80:128-n8:16:32:64-S128"
target triple = "x86_64-pc-linux-gnu"

%struct.usbll_data = type { i32, ptr, ptr, ptr }
%struct.usbll_transaction_info = type { i32, i8, i8, i8, i32, ptr, ptr }

@.str.178 = private unnamed_addr constant [29 x i8] c"%s:%u: failed assertion \22%s\22\00", align 1
@.str.179 = private unnamed_addr constant [31 x i8] c"epan/dissectors/packet-usbll.c\00", align 1
@.str.201 = private unnamed_addr constant [55 x i8] c"%s:%u: failed assertion \22DISSECTOR_ASSERT_NOT_REACHED\22\00", align 1
@.str.206 = private unnamed_addr constant [32 x i8] c"data->transaction != ((void*)0)\00", align 1
@.str.207 = private unnamed_addr constant [45 x i8] c"data->transaction->split_start != ((void*)0)\00", align 1
@.str.208 = private unnamed_addr constant [48 x i8] c"data->transaction->split_complete != ((void*)0)\00", align 1

; Function Attrs: null_pointer_is_valid sspstrong uwtable
define internal i32 @usbll_get_data_transaction_speed(ptr noundef %0) #0 {
  %2 = alloca i32, align 4
  %3 = alloca ptr, align 8
  store ptr %0, ptr %3, align 8
  %4 = load ptr, ptr %3, align 8
  %5 = getelementptr inbounds nuw %struct.usbll_data, ptr %4, i32 0, i32 0
  %6 = load i32, ptr %5, align 8
  switch i32 %6, label %73 [
    i32 3, label %7
    i32 4, label %7
    i32 5, label %7
    i32 8, label %7
    i32 10, label %7
    i32 11, label %7
    i32 12, label %7
    i32 13, label %7
    i32 16, label %7
    i32 21, label %7
    i32 23, label %7
    i32 27, label %21
    i32 31, label %21
    i32 32, label %21
    i32 55, label %21
    i32 56, label %21
    i32 76, label %21
    i32 77, label %21
    i32 96, label %21
    i32 45, label %47
    i32 48, label %47
    i32 49, label %47
    i32 51, label %47
    i32 66, label %47
    i32 69, label %47
    i32 70, label %47
    i32 72, label %47
    i32 83, label %47
    i32 87, label %47
    i32 88, label %47
    i32 89, label %47
    i32 91, label %47
    i32 100, label %47
    i32 101, label %47
  ]

7:                                                ; preds = %1, %1, %1, %1, %1, %1, %1, %1, %1, %1, %1
  %8 = load ptr, ptr %3, align 8
  %9 = getelementptr inbounds nuw %struct.usbll_data, ptr %8, i32 0, i32 1
  %10 = load ptr, ptr %9, align 8
  %11 = icmp ne ptr %10, null
  br i1 %11, label %12, label %13

12:                                               ; preds = %7
  br label %15

13:                                               ; preds = %7
  call void (ptr, ...) @proto_report_dissector_bug(ptr noundef @.str.178, ptr noundef @.str.179, i32 noundef 1062, ptr noundef @.str.206) #14
  unreachable

14:                                               ; No predecessors!
  br label %15

15:                                               ; preds = %14, %12
  %16 = load ptr, ptr %3, align 8
  %17 = getelementptr inbounds nuw %struct.usbll_data, ptr %16, i32 0, i32 1
  %18 = load ptr, ptr %17, align 8
  %19 = getelementptr inbounds nuw %struct.usbll_transaction_info, ptr %18, i32 0, i32 4
  %20 = load i32, ptr %19, align 8
  store i32 %20, ptr %2, align 4
  br label %74

21:                                               ; preds = %1, %1, %1, %1, %1, %1, %1, %1
  %22 = load ptr, ptr %3, align 8
  %23 = getelementptr inbounds nuw %struct.usbll_data, ptr %22, i32 0, i32 1
  %24 = load ptr, ptr %23, align 8
  %25 = icmp ne ptr %24, null
  br i1 %25, label %26, label %27

26:                                               ; preds = %21
  br label %29

27:                                               ; preds = %21
  call void (ptr, ...) @proto_report_dissector_bug(ptr noundef @.str.178, ptr noundef @.str.179, i32 noundef 1072, ptr noundef @.str.206) #14
  unreachable

28:                                               ; No predecessors!
  br label %29

29:                                               ; preds = %28, %26
  %30 = load ptr, ptr %3, align 8
  %31 = getelementptr inbounds nuw %struct.usbll_data, ptr %30, i32 0, i32 1
  %32 = load ptr, ptr %31, align 8
  %33 = getelementptr inbounds nuw %struct.usbll_transaction_info, ptr %32, i32 0, i32 5
  %34 = load ptr, ptr %33, align 8
  %35 = icmp ne ptr %34, null
  br i1 %35, label %36, label %37

36:                                               ; preds = %29
  br label %39

37:                                               ; preds = %29
  call void (ptr, ...) @proto_report_dissector_bug(ptr noundef @.str.178, ptr noundef @.str.179, i32 noundef 1073, ptr noundef @.str.207) #14
  unreachable

38:                                               ; No predecessors!
  br label %39

39:                                               ; preds = %38, %36
  %40 = load ptr, ptr %3, align 8
  %41 = getelementptr inbounds nuw %struct.usbll_data, ptr %40, i32 0, i32 1
  %42 = load ptr, ptr %41, align 8
  %43 = getelementptr inbounds nuw %struct.usbll_transaction_info, ptr %42, i32 0, i32 5
  %44 = load ptr, ptr %43, align 8
  %45 = getelementptr inbounds nuw %struct.usbll_transaction_info, ptr %44, i32 0, i32 4
  %46 = load i32, ptr %45, align 8
  store i32 %46, ptr %2, align 4
  br label %74

47:                                               ; preds = %1, %1, %1, %1, %1, %1, %1, %1, %1, %1, %1, %1, %1, %1, %1
  %48 = load ptr, ptr %3, align 8
  %49 = getelementptr inbounds nuw %struct.usbll_data, ptr %48, i32 0, i32 1
  %50 = load ptr, ptr %49, align 8
  %51 = icmp ne ptr %50, null
  br i1 %51, label %52, label %53

52:                                               ; preds = %47
  br label %55

53:                                               ; preds = %47
  call void (ptr, ...) @proto_report_dissector_bug(ptr noundef @.str.178, ptr noundef @.str.179, i32 noundef 1090, ptr noundef @.str.206) #14
  unreachable

54:                                               ; No predecessors!
  br label %55

55:                                               ; preds = %54, %52
  %56 = load ptr, ptr %3, align 8
  %57 = getelementptr inbounds nuw %struct.usbll_data, ptr %56, i32 0, i32 1
  %58 = load ptr, ptr %57, align 8
  %59 = getelementptr inbounds nuw %struct.usbll_transaction_info, ptr %58, i32 0, i32 6
  %60 = load ptr, ptr %59, align 8
  %61 = icmp ne ptr %60, null
  br i1 %61, label %62, label %63

62:                                               ; preds = %55
  br label %65

63:                                               ; preds = %55
  call void (ptr, ...) @proto_report_dissector_bug(ptr noundef @.str.178, ptr noundef @.str.179, i32 noundef 1091, ptr noundef @.str.208) #14
  unreachable

64:                                               ; No predecessors!
  br label %65

65:                                               ; preds = %64, %62
  %66 = load ptr, ptr %3, align 8
  %67 = getelementptr inbounds nuw %struct.usbll_data, ptr %66, i32 0, i32 1
  %68 = load ptr, ptr %67, align 8
  %69 = getelementptr inbounds nuw %struct.usbll_transaction_info, ptr %68, i32 0, i32 6
  %70 = load ptr, ptr %69, align 8
  %71 = getelementptr inbounds nuw %struct.usbll_transaction_info, ptr %70, i32 0, i32 4
  %72 = load i32, ptr %71, align 8
  store i32 %72, ptr %2, align 4
  br label %74

73:                                               ; preds = %1
  call void (ptr, ...) @proto_report_dissector_bug(ptr noundef @.str.201, ptr noundef @.str.179, i32 noundef 1094) #14
  unreachable

74:                                               ; preds = %65, %39, %15
  %75 = load i32, ptr %2, align 4
  ret i32 %75
}