; Function Attrs: null_pointer_is_valid sspstrong uwtable
define internal fastcc i32 @usbll_get_data_transaction_speed(ptr noundef readonly captures(none) %0) unnamed_addr #2 {
  %2 = load i32, ptr %0, align 8
  switch i32 %2, label %23 [
    i32 3, label %3
    i32 4, label %3
    i32 5, label %3
    i32 8, label %3
    i32 10, label %3
    i32 11, label %3
    i32 12, label %3
    i32 13, label %3
    i32 16, label %3
    i32 21, label %3
    i32 23, label %3
    i32 27, label %7
    i32 31, label %7
    i32 32, label %7
    i32 55, label %7
    i32 56, label %7
    i32 76, label %7
    i32 77, label %7
    i32 96, label %7
    i32 45, label %15
    i32 48, label %15
    i32 49, label %15
    i32 51, label %15
    i32 66, label %15
    i32 69, label %15
    i32 70, label %15
    i32 72, label %15
    i32 83, label %15
    i32 87, label %15
    i32 88, label %15
    i32 89, label %15
    i32 91, label %15
    i32 100, label %15
    i32 101, label %15
  ]

3:                                                ; preds = %1, %1, %1, %1, %1, %1, %1, %1, %1, %1, %1
  %4 = getelementptr inbounds nuw i8, ptr %0, i64 8
  %5 = load ptr, ptr %4, align 8
  %.not17 = icmp eq ptr %5, null
  br i1 %.not17, label %6, label %24

6:                                                ; preds = %3
  tail call void (ptr, ...) @proto_report_dissector_bug(ptr noundef nonnull @.str.178, ptr noundef nonnull @.str.179, i32 noundef 1062, ptr noundef nonnull @.str.206) #15
  unreachable

7:                                                ; preds = %1, %1, %1, %1, %1, %1, %1, %1
  %8 = getelementptr inbounds nuw i8, ptr %0, i64 8
  %9 = load ptr, ptr %8, align 8
  %.not15 = icmp eq ptr %9, null
  br i1 %.not15, label %10, label %11

10:                                               ; preds = %7
  tail call void (ptr, ...) @proto_report_dissector_bug(ptr noundef nonnull @.str.178, ptr noundef nonnull @.str.179, i32 noundef 1072, ptr noundef nonnull @.str.206) #15
  unreachable

11:                                               ; preds = %7
  %12 = getelementptr inbounds nuw i8, ptr %9, i64 16
  %13 = load ptr, ptr %12, align 8
  %.not16 = icmp eq ptr %13, null
  br i1 %.not16, label %14, label %24

14:                                               ; preds = %11
  tail call void (ptr, ...) @proto_report_dissector_bug(ptr noundef nonnull @.str.178, ptr noundef nonnull @.str.179, i32 noundef 1073, ptr noundef nonnull @.str.207) #15
  unreachable

15:                                               ; preds = %1, %1, %1, %1, %1, %1, %1, %1, %1, %1, %1, %1, %1, %1, %1
  %16 = getelementptr inbounds nuw i8, ptr %0, i64 8
  %17 = load ptr, ptr %16, align 8
  %.not = icmp eq ptr %17, null
  br i1 %.not, label %18, label %19

18:                                               ; preds = %15
  tail call void (ptr, ...) @proto_report_dissector_bug(ptr noundef nonnull @.str.178, ptr noundef nonnull @.str.179, i32 noundef 1090, ptr noundef nonnull @.str.206) #15
  unreachable

19:                                               ; preds = %15
  %20 = getelementptr inbounds nuw i8, ptr %17, i64 24
  %21 = load ptr, ptr %20, align 8
  %.not14 = icmp eq ptr %21, null
  br i1 %.not14, label %22, label %24

22:                                               ; preds = %19
  tail call void (ptr, ...) @proto_report_dissector_bug(ptr noundef nonnull @.str.178, ptr noundef nonnull @.str.179, i32 noundef 1091, ptr noundef nonnull @.str.208) #15
  unreachable

23:                                               ; preds = %1
  tail call void (ptr, ...) @proto_report_dissector_bug(ptr noundef nonnull @.str.201, ptr noundef nonnull @.str.179, i32 noundef 1094) #15
  unreachable

24:                                               ; preds = %19, %11, %3
  %.sink = phi ptr [ %5, %3 ], [ %13, %11 ], [ %21, %19 ]
  %25 = getelementptr inbounds nuw i8, ptr %.sink, i64 8
  %.0 = load i32, ptr %25, align 8
  ret i32 %.0
}